target datalayout = "e-m:e-p270:32:32-p271:32:32-p272:64:64-i64:64-i128:128-f80:128-n8:16:32:64-S128"
target triple = "x86_64-pc-linux-gnu"

%struct._capture_file = type { ptr, i32, ptr, ptr, i8, i8, i8, i64, i16, i32, i32, i32, ptr, i32, i64, i32, i32, i32, i32, i8, i32, %struct.nstime_t, i32, ptr, ptr, ptr, i8, i8, i32, ptr, i8, i8, i8, i8, i8, i32, i32, i8, ptr, i32, i32, i8, %struct.packet_provider_data, i32, i32, %struct.epan_column_info, ptr, ptr, ptr, %struct.wtap_rec, %struct.Buffer, ptr, i64, i32 }
%struct.nstime_t = type { i64, i32 }
%struct.packet_provider_data = type { ptr, ptr, ptr, ptr, ptr, ptr }
%struct.epan_column_info = type { ptr, i32, ptr, ptr, ptr, %struct.col_expr_t, i8, ptr }
%struct.col_expr_t = type { ptr, ptr }
%struct.wtap_rec = type { i32, i32, i32, %struct.nstime_t, i32, %struct.nstime_t, i8, %union.anon, ptr, i8, %struct.Buffer, %struct.Buffer }
%union.anon = type { %struct.wtap_packet_header }
%struct.wtap_packet_header = type { i32, i32, i32, i32, %union.wtap_pseudo_header }
%union.wtap_pseudo_header = type { %struct.erf_mc_phdr }
%struct.erf_mc_phdr = type { %struct.erf_phdr, [16 x %struct.erf_ehdr], %union.anon.1 }
%struct.erf_phdr = type { i64, i8, i8, i16, i16, i16 }
%struct.erf_ehdr = type { i64 }
%union.anon.1 = type { i32 }
%struct.Buffer = type { ptr, i64, i64, i64 }
%struct._frame_data = type <{ i32, i32, i32, i32, i32, [4 x i8], i64, ptr, ptr, ptr, i8, i16, [5 x i8], %struct.nstime_t, %struct.nstime_t, i32, i32 }>
%struct.cbs_t = type { ptr, i64, ptr }

; Function Attrs: inlinehint nounwind null_pointer_is_valid sspstrong uwtable
define internal ptr @ws_buffer_start_ptr(ptr noundef %0) #17 {
  %2 = alloca ptr, align 8
  store ptr %0, ptr %2, align 8
  %3 = load ptr, ptr %2, align 8
  %4 = getelementptr inbounds nuw %struct.Buffer, ptr %3, i32 0, i32 0
  %5 = load ptr, ptr %4, align 8
  %6 = load ptr, ptr %2, align 8
  %7 = getelementptr inbounds nuw %struct.Buffer, ptr %6, i32 0, i32 2
  %8 = load i64, ptr %7, align 8
  %9 = getelementptr i8, ptr %5, i64 %8
  ret ptr %9
}

; Function Attrs: null_pointer_is_valid sspstrong uwtable
define hidden zeroext i1 @cf_read_record(ptr noundef %0, ptr noundef %1, ptr noundef %2) #1 {
  %4 = alloca i1, align 1
  %5 = alloca ptr, align 8
  %6 = alloca ptr, align 8
  %7 = alloca ptr, align 8
  %8 = alloca i32, align 4
  %9 = alloca ptr, align 8
  %10 = alloca i32, align 4
  store ptr %0, ptr %5, align 8
  store ptr %1, ptr %6, align 8
  store ptr %2, ptr %7, align 8
  call void @llvm.lifetime.start.p0(i64 4, ptr %8) #19
  call void @llvm.lifetime.start.p0(i64 8, ptr %9) #19
  %11 = load ptr, ptr %5, align 8
  %12 = getelementptr inbounds nuw %struct._capture_file, ptr %11, i32 0, i32 42
  %13 = getelementptr inbounds nuw %struct.packet_provider_data, ptr %12, i32 0, i32 0
  %14 = load ptr, ptr %13, align 8
  %15 = load ptr, ptr %6, align 8
  %16 = getelementptr inbounds nuw %struct._frame_data, ptr %15, i32 0, i32 6
  %17 = load i64, ptr %16, align 8
  %18 = load ptr, ptr %7, align 8
  %19 = call zeroext i1 @wtap_seek_read(ptr noundef %14, i64 noundef %17, ptr noundef %18, ptr noundef %8, ptr noundef %9)
  br i1 %19, label %26, label %20

20:                                               ; preds = %3
  %21 = load ptr, ptr %5, align 8
  %22 = getelementptr inbounds nuw %struct._capture_file, ptr %21, i32 0, i32 2
  %23 = load ptr, ptr %22, align 8
  %24 = load i32, ptr %8, align 4
  %25 = load ptr, ptr %9, align 8
  call void @report_cfile_read_failure(ptr noundef %23, i32 noundef %24, ptr noundef %25)
  store i1 false, ptr %4, align 1
  store i32 1, ptr %10, align 4
  br label %27

26:                                               ; preds = %3
  store i1 true, ptr %4, align 1
  store i32 1, ptr %10, align 4
  br label %27

27:                                               ; preds = %26, %20
  call void @llvm.lifetime.end.p0(i64 8, ptr %9) #19
  call void @llvm.lifetime.end.p0(i64 4, ptr %8) #19
  %28 = load i1, ptr %4, align 1
  ret i1 %28
}

; Function Attrs: null_pointer_is_valid sspstrong uwtable
define internal i32 @match_narrow_and_wide(ptr noundef %0, ptr noundef %1, ptr noundef %2, ptr noundef %3) #1 {
  %5 = alloca i32, align 4
  %6 = alloca ptr, align 8
  %7 = alloca ptr, align 8
  %8 = alloca ptr, align 8
  %9 = alloca ptr, align 8
  %10 = alloca ptr, align 8
  %11 = alloca ptr, align 8
  %12 = alloca i64, align 8
  %13 = alloca i32, align 4
  %14 = alloca i32, align 4
  %15 = alloca ptr, align 8
  %16 = alloca ptr, align 8
  %17 = alloca ptr, align 8
  %18 = alloca i32, align 4
  %19 = alloca i8, align 1
  %20 = alloca i64, align 8
  %21 = alloca i32, align 4
  store ptr %0, ptr %6, align 8
  store ptr %1, ptr %7, align 8
  store ptr %2, ptr %8, align 8
  store ptr %3, ptr %9, align 8
  call void @llvm.lifetime.start.p0(i64 8, ptr %10) #19
  %22 = load ptr, ptr %9, align 8
  store ptr %22, ptr %10, align 8
  call void @llvm.lifetime.start.p0(i64 8, ptr %11) #19
  %23 = load ptr, ptr %10, align 8
  %24 = getelementptr inbounds nuw %struct.cbs_t, ptr %23, i32 0, i32 0
  %25 = load ptr, ptr %24, align 8
  store ptr %25, ptr %11, align 8
  call void @llvm.lifetime.start.p0(i64 8, ptr %12) #19
  %26 = load ptr, ptr %10, align 8
  %27 = getelementptr inbounds nuw %struct.cbs_t, ptr %26, i32 0, i32 1
  %28 = load i64, ptr %27, align 8
  store i64 %28, ptr %12, align 8
  call void @llvm.lifetime.start.p0(i64 4, ptr %13) #19
  call void @llvm.lifetime.start.p0(i64 4, ptr %14) #19
  call void @llvm.lifetime.start.p0(i64 8, ptr %15) #19
  call void @llvm.lifetime.start.p0(i64 8, ptr %16) #19
  call void @llvm.lifetime.start.p0(i64 8, ptr %17) #19
  call void @llvm.lifetime.start.p0(i64 4, ptr %18) #19
  call void @llvm.lifetime.start.p0(i64 1, ptr %19) #19
  call void @llvm.lifetime.start.p0(i64 8, ptr %20) #19
  store i64 0, ptr %20, align 8
  %29 = load ptr, ptr %6, align 8
  %30 = load ptr, ptr %7, align 8
  %31 = load ptr, ptr %8, align 8
  %32 = call zeroext i1 @cf_read_record(ptr noundef %29, ptr noundef %30, ptr noundef %31)
  br i1 %32, label %34, label %33

33:                                               ; preds = %4
  store i32 2, ptr %5, align 4
  store i32 1, ptr %21, align 4
  br label %202

34:                                               ; preds = %4
  store i32 0, ptr %13, align 4
  %35 = load ptr, ptr %7, align 8
  %36 = getelementptr inbounds nuw %struct._frame_data, ptr %35, i32 0, i32 3
  %37 = load i32, ptr %36, align 4
  store i32 %37, ptr %14, align 4
  %38 = load ptr, ptr %8, align 8
  %39 = getelementptr inbounds nuw %struct.wtap_rec, ptr %38, i32 0, i32 11
  %40 = call ptr @ws_buffer_start_ptr(ptr noundef %39)
  store ptr %40, ptr %16, align 8
  %41 = load ptr, ptr %16, align 8
  %42 = load i32, ptr %14, align 4
  %43 = zext i32 %42 to i64
  %44 = getelementptr i8, ptr %41, i64 %43
  store ptr %44, ptr %17, align 8
  %45 = load ptr, ptr %16, align 8
  store ptr %45, ptr %15, align 8
  %46 = load ptr, ptr %6, align 8
  %47 = getelementptr inbounds nuw %struct._capture_file, ptr %46, i32 0, i32 36
  %48 = load i32, ptr %47, align 4
  %49 = icmp ne i32 %48, 0
  br i1 %49, label %55, label %50

50:                                               ; preds = %34
  %51 = load ptr, ptr %6, align 8
  %52 = getelementptr inbounds nuw %struct._capture_file, ptr %51, i32 0, i32 35
  %53 = load i32, ptr %52, align 8
  %54 = icmp ne i32 %53, 0
  br i1 %54, label %55, label %63

55:                                               ; preds = %50, %34
  %56 = load ptr, ptr %6, align 8
  %57 = getelementptr inbounds nuw %struct._capture_file, ptr %56, i32 0, i32 35
  %58 = load i32, ptr %57, align 8
  %59 = add i32 %58, 1
  %60 = load ptr, ptr %15, align 8
  %61 = zext i32 %59 to i64
  %62 = getelementptr i8, ptr %60, i64 %61
  store ptr %62, ptr %15, align 8
  br label %63

63:                                               ; preds = %55, %50
  br label %64

64:                                               ; preds = %196, %63
  %65 = load ptr, ptr %15, align 8
  %66 = load ptr, ptr %17, align 8
  %67 = icmp ult ptr %65, %66
  br i1 %67, label %68, label %199

68:                                               ; preds = %64
  %69 = load ptr, ptr %15, align 8
  %70 = load ptr, ptr %11, align 8
  %71 = getelementptr i8, ptr %70, i64 0
  %72 = load i8, ptr %71, align 1
  %73 = zext i8 %72 to i32
  %74 = load ptr, ptr %17, align 8
  %75 = load ptr, ptr %15, align 8
  %76 = ptrtoint ptr %74 to i64
  %77 = ptrtoint ptr %75 to i64
  %78 = sub i64 %76, %77
  %79 = call ptr @memchr(ptr noundef %69, i32 noundef %73, i64 noundef %78) #25
  store ptr %79, ptr %15, align 8
  %80 = load ptr, ptr %15, align 8
  %81 = icmp eq ptr %80, null
  br i1 %81, label %82, label %83

82:                                               ; preds = %68
  br label %199

83:                                               ; preds = %68
  store i64 0, ptr %20, align 8
  store i32 0, ptr %18, align 4
  br label %84

84:                                               ; preds = %127, %83
  %85 = load ptr, ptr %15, align 8
  %86 = load i32, ptr %18, align 4
  %87 = zext i32 %86 to i64
  %88 = getelementptr i8, ptr %85, i64 %87
  %89 = load ptr, ptr %17, align 8
  %90 = icmp ult ptr %88, %89
  br i1 %90, label %91, label %130

91:                                               ; preds = %84
  %92 = load ptr, ptr %15, align 8
  %93 = load i32, ptr %18, align 4
  %94 = zext i32 %93 to i64
  %95 = getelementptr i8, ptr %92, i64 %94
  %96 = load i8, ptr %95, align 1
  store i8 %96, ptr %19, align 1
  %97 = load i8, ptr %19, align 1
  %98 = zext i8 %97 to i32
  %99 = load ptr, ptr %11, align 8
  %100 = load i64, ptr %20, align 8
  %101 = getelementptr i8, ptr %99, i64 %100
  %102 = load i8, ptr %101, align 1
  %103 = zext i8 %102 to i32
  %104 = icmp eq i32 %98, %103
  br i1 %104, label %105, label %125

105:                                              ; preds = %91
  %106 = load i64, ptr %20, align 8
  %107 = add i64 %106, 1
  store i64 %107, ptr %20, align 8
  %108 = load i64, ptr %20, align 8
  %109 = load i64, ptr %12, align 8
  %110 = icmp eq i64 %108, %109
  br i1 %110, label %111, label %124

111:                                              ; preds = %105
  store i32 1, ptr %13, align 4
  %112 = load ptr, ptr %15, align 8
  %113 = load ptr, ptr %16, align 8
  %114 = ptrtoint ptr %112 to i64
  %115 = ptrtoint ptr %113 to i64
  %116 = sub i64 %114, %115
  %117 = trunc i64 %116 to i32
  %118 = load ptr, ptr %6, align 8
  %119 = getelementptr inbounds nuw %struct._capture_file, ptr %118, i32 0, i32 35
  store i32 %117, ptr %119, align 8
  %120 = load i32, ptr %18, align 4
  %121 = add i32 %120, 1
  %122 = load ptr, ptr %6, align 8
  %123 = getelementptr inbounds nuw %struct._capture_file, ptr %122, i32 0, i32 36
  store i32 %121, ptr %123, align 4
  br label %200

124:                                              ; preds = %105
  br label %126

125:                                              ; preds = %91
  br label %130

126:                                              ; preds = %124
  br label %127

127:                                              ; preds = %126
  %128 = load i32, ptr %18, align 4
  %129 = add i32 %128, 1
  store i32 %129, ptr %18, align 4
  br label %84, !llvm.loop !41

130:                                              ; preds = %125, %84
  store i64 0, ptr %20, align 8
  store i32 0, ptr %18, align 4
  br label %131

131:                                              ; preds = %192, %130
  %132 = load ptr, ptr %15, align 8
  %133 = load i32, ptr %18, align 4
  %134 = zext i32 %133 to i64
  %135 = getelementptr i8, ptr %132, i64 %134
  %136 = load ptr, ptr %17, align 8
  %137 = icmp ult ptr %135, %136
  br i1 %137, label %138, label %195

138:                                              ; preds = %131
  %139 = load ptr, ptr %15, align 8
  %140 = load i32, ptr %18, align 4
  %141 = zext i32 %140 to i64
  %142 = getelementptr i8, ptr %139, i64 %141
  %143 = load i8, ptr %142, align 1
  store i8 %143, ptr %19, align 1
  %144 = load i8, ptr %19, align 1
  %145 = zext i8 %144 to i32
  %146 = load ptr, ptr %11, align 8
  %147 = load i64, ptr %20, align 8
  %148 = getelementptr i8, ptr %146, i64 %147
  %149 = load i8, ptr %148, align 1
  %150 = zext i8 %149 to i32
  %151 = icmp eq i32 %145, %150
  br i1 %151, label %152, label %190

152:                                              ; preds = %138
  %153 = load i64, ptr %20, align 8
  %154 = add i64 %153, 1
  store i64 %154, ptr %20, align 8
  %155 = load i64, ptr %20, align 8
  %156 = load i64, ptr %12, align 8
  %157 = icmp eq i64 %155, %156
  br i1 %157, label %158, label %171

158:                                              ; preds = %152
  store i32 1, ptr %13, align 4
  %159 = load ptr, ptr %15, align 8
  %160 = load ptr, ptr %16, align 8
  %161 = ptrtoint ptr %159 to i64
  %162 = ptrtoint ptr %160 to i64
  %163 = sub i64 %161, %162
  %164 = trunc i64 %163 to i32
  %165 = load ptr, ptr %6, align 8
  %166 = getelementptr inbounds nuw %struct._capture_file, ptr %165, i32 0, i32 35
  store i32 %164, ptr %166, align 8
  %167 = load i32, ptr %18, align 4
  %168 = add i32 %167, 1
  %169 = load ptr, ptr %6, align 8
  %170 = getelementptr inbounds nuw %struct._capture_file, ptr %169, i32 0, i32 36
  store i32 %168, ptr %170, align 4
  br label %200

171:                                              ; preds = %152
  %172 = load i32, ptr %18, align 4
  %173 = add i32 %172, 1
  store i32 %173, ptr %18, align 4
  %174 = load ptr, ptr %15, align 8
  %175 = load i32, ptr %18, align 4
  %176 = zext i32 %175 to i64
  %177 = getelementptr i8, ptr %174, i64 %176
  %178 = load ptr, ptr %17, align 8
  %179 = icmp uge ptr %177, %178
  br i1 %179, label %188, label %180

180:                                              ; preds = %171
  %181 = load ptr, ptr %15, align 8
  %182 = load i32, ptr %18, align 4
  %183 = zext i32 %182 to i64
  %184 = getelementptr i8, ptr %181, i64 %183
  %185 = load i8, ptr %184, align 1
  %186 = zext i8 %185 to i32
  %187 = icmp ne i32 %186, 0
  br i1 %187, label %188, label %189

188:                                              ; preds = %180, %171
  br label %195

189:                                              ; preds = %180
  br label %191

190:                                              ; preds = %138
  br label %195

191:                                              ; preds = %189
  br label %192

192:                                              ; preds = %191
  %193 = load i32, ptr %18, align 4
  %194 = add i32 %193, 1
  store i32 %194, ptr %18, align 4
  br label %131, !llvm.loop !42

195:                                              ; preds = %190, %188, %131
  br label %196

196:                                              ; preds = %195
  %197 = load ptr, ptr %15, align 8
  %198 = getelementptr i8, ptr %197, i32 1
  store ptr %198, ptr %15, align 8
  br label %64, !llvm.loop !43

199:                                              ; preds = %82, %64
  br label %200

200:                                              ; preds = %199, %158, %111
  %201 = load i32, ptr %13, align 4
  store i32 %201, ptr %5, align 4
  store i32 1, ptr %21, align 4
  br label %202

202:                                              ; preds = %200, %33
  call void @llvm.lifetime.end.p0(i64 8, ptr %20) #19
  call void @llvm.lifetime.end.p0(i64 1, ptr %19) #19
  call void @llvm.lifetime.end.p0(i64 4, ptr %18) #19
  call void @llvm.lifetime.end.p0(i64 8, ptr %17) #19
  call void @llvm.lifetime.end.p0(i64 8, ptr %16) #19
  call void @llvm.lifetime.end.p0(i64 8, ptr %15) #19
  call void @llvm.lifetime.end.p0(i64 4, ptr %14) #19
  call void @llvm.lifetime.end.p0(i64 4, ptr %13) #19
  call void @llvm.lifetime.end.p0(i64 8, ptr %12) #19
  call void @llvm.lifetime.end.p0(i64 8, ptr %11) #19
  call void @llvm.lifetime.end.p0(i64 8, ptr %10) #19
  %203 = load i32, ptr %5, align 4
  ret i32 %203
}