; Function Attrs: null_pointer_is_valid sspstrong uwtable
define internal range(i32 0, 3) i32 @match_narrow_and_wide(ptr noundef captures(none) %0, ptr noundef readonly captures(none) %1, ptr noundef %2, ptr noundef readonly captures(none) %3) #1 {
  %5 = alloca i32, align 4
  %6 = alloca ptr, align 8
  %7 = load ptr, ptr %3, align 8
  %8 = getelementptr inbounds nuw i8, ptr %3, i64 8
  %9 = load i64, ptr %8, align 8
  call void @llvm.lifetime.start.p0(i64 4, ptr nonnull %5) #23
  call void @llvm.lifetime.start.p0(i64 8, ptr nonnull %6) #23
  %10 = getelementptr inbounds nuw i8, ptr %0, i64 224
  %11 = load ptr, ptr %10, align 8
  %12 = getelementptr inbounds nuw i8, ptr %1, i64 24
  %13 = load i64, ptr %12, align 8
  %14 = call zeroext i1 @wtap_seek_read(ptr noundef %11, i64 noundef %13, ptr noundef %2, ptr noundef nonnull %5, ptr noundef nonnull %6)
  br i1 %14, label %19, label %cf_read_record.exit

cf_read_record.exit:                              ; preds = %4
  %15 = getelementptr inbounds nuw i8, ptr %0, i64 16
  %16 = load ptr, ptr %15, align 8
  %17 = load i32, ptr %5, align 4
  %18 = load ptr, ptr %6, align 8
  call void @report_cfile_read_failure(ptr noundef %16, i32 noundef %17, ptr noundef %18)
  call void @llvm.lifetime.end.p0(i64 8, ptr nonnull %6) #23
  call void @llvm.lifetime.end.p0(i64 4, ptr nonnull %5) #23
  br label %.loopexit

19:                                               ; preds = %4
  call void @llvm.lifetime.end.p0(i64 8, ptr nonnull %6) #23
  call void @llvm.lifetime.end.p0(i64 4, ptr nonnull %5) #23
  %20 = getelementptr inbounds nuw i8, ptr %1, i64 12
  %21 = load i32, ptr %20, align 4
  %22 = getelementptr inbounds nuw i8, ptr %2, i64 280
  %.val = load ptr, ptr %22, align 8
  %23 = getelementptr i8, ptr %2, i64 296
  %.val80 = load i64, ptr %23, align 8
  %24 = getelementptr i8, ptr %.val, i64 %.val80
  %25 = zext i32 %21 to i64
  %26 = getelementptr i8, ptr %24, i64 %25
  %27 = getelementptr inbounds nuw i8, ptr %0, i64 188
  %28 = load i32, ptr %27, align 4
  %.not = icmp eq i32 %28, 0
  %29 = getelementptr inbounds nuw i8, ptr %0, i64 184
  %30 = load i32, ptr %29, align 8
  %.not77 = icmp eq i32 %30, 0
  %or.cond110 = select i1 %.not, i1 %.not77, i1 false
  %31 = add i32 %30, 1
  %32 = zext i32 %31 to i64
  %.068.idx = select i1 %or.cond110, i64 0, i64 %32
  %.068 = getelementptr i8, ptr %24, i64 %.068.idx
  %33 = icmp ult ptr %.068, %26
  br i1 %33, label %.lr.ph97, label %.loopexit

.lr.ph97:                                         ; preds = %19
  %34 = load i8, ptr %7, align 1
  %35 = zext i8 %34 to i32
  %36 = ptrtoint ptr %26 to i64
  %37 = trunc i64 %9 to i32
  %38 = shl i32 %37, 1
  br label %39

39:                                               ; preds = %.lr.ph97, %._crit_edge91
  %.16995 = phi ptr [ %.068, %.lr.ph97 ], [ %88, %._crit_edge91 ]
  %40 = ptrtoint ptr %.16995 to i64
  %41 = sub i64 %36, %40
  %42 = call ptr @memchr(ptr noundef %.16995, i32 noundef %35, i64 noundef %41) #26
  %43 = icmp eq ptr %42, null
  br i1 %43, label %.loopexit, label %.preheader

.preheader:                                       ; preds = %39
  %44 = icmp ult ptr %42, %26
  br i1 %44, label %.lr.ph, label %._crit_edge91

.lr.ph:                                           ; preds = %.preheader, %59
  %45 = phi ptr [ %61, %59 ], [ %42, %.preheader ]
  %.085 = phi i64 [ %51, %59 ], [ 0, %.preheader ]
  %46 = load i8, ptr %45, align 1
  %47 = getelementptr i8, ptr %7, i64 %.085
  %48 = load i8, ptr %47, align 1
  %49 = icmp eq i8 %46, %48
  br i1 %49, label %50, label %.lr.ph90.preheader

50:                                               ; preds = %.lr.ph
  %51 = add i64 %.085, 1
  %52 = icmp eq i64 %51, %9
  br i1 %52, label %53, label %59

53:                                               ; preds = %50
  %54 = ptrtoint ptr %42 to i64
  %55 = ptrtoint ptr %24 to i64
  %56 = sub i64 %54, %55
  %57 = trunc i64 %56 to i32
  %58 = getelementptr inbounds nuw i8, ptr %0, i64 184
  store i32 %57, ptr %58, align 8
  store i32 %37, ptr %27, align 4
  br label %.loopexit

59:                                               ; preds = %50
  %60 = and i64 %51, 4294967295
  %61 = getelementptr i8, ptr %42, i64 %60
  %62 = icmp ult ptr %61, %26
  br i1 %62, label %.lr.ph, label %.lr.ph90.preheader, !llvm.loop !42

.lr.ph90.preheader:                               ; preds = %59, %.lr.ph
  br label %.lr.ph90

.lr.ph90:                                         ; preds = %.lr.ph90.preheader, %82
  %63 = phi ptr [ %86, %82 ], [ %42, %.lr.ph90.preheader ]
  %.188 = phi i64 [ %69, %82 ], [ 0, %.lr.ph90.preheader ]
  %.16587 = phi i32 [ %84, %82 ], [ 0, %.lr.ph90.preheader ]
  %64 = load i8, ptr %63, align 1
  %65 = getelementptr i8, ptr %7, i64 %.188
  %66 = load i8, ptr %65, align 1
  %67 = icmp eq i8 %64, %66
  br i1 %67, label %68, label %._crit_edge91

68:                                               ; preds = %.lr.ph90
  %69 = add i64 %.188, 1
  %70 = icmp eq i64 %69, %9
  br i1 %70, label %71, label %78

71:                                               ; preds = %68
  %72 = ptrtoint ptr %42 to i64
  %73 = ptrtoint ptr %24 to i64
  %74 = sub i64 %72, %73
  %75 = trunc i64 %74 to i32
  %76 = getelementptr inbounds nuw i8, ptr %0, i64 184
  store i32 %75, ptr %76, align 8
  %77 = add i32 %38, -1
  store i32 %77, ptr %27, align 4
  br label %.loopexit

78:                                               ; preds = %68
  %79 = or disjoint i32 %.16587, 1
  %80 = zext i32 %79 to i64
  %81 = getelementptr i8, ptr %42, i64 %80
  %.not78 = icmp ult ptr %81, %26
  br i1 %.not78, label %82, label %._crit_edge91

82:                                               ; preds = %78
  %83 = load i8, ptr %81, align 1
  %.not79 = icmp eq i8 %83, 0
  %84 = add i32 %.16587, 2
  %85 = zext i32 %84 to i64
  %86 = getelementptr i8, ptr %42, i64 %85
  %87 = icmp ult ptr %86, %26
  %or.cond = select i1 %.not79, i1 %87, i1 false
  br i1 %or.cond, label %.lr.ph90, label %._crit_edge91, !llvm.loop !43

._crit_edge91:                                    ; preds = %.lr.ph90, %78, %82, %.preheader
  %88 = getelementptr i8, ptr %42, i64 1
  %89 = icmp ult ptr %88, %26
  br i1 %89, label %39, label %.loopexit, !llvm.loop !44

.loopexit:                                        ; preds = %._crit_edge91, %39, %19, %cf_read_record.exit, %53, %71
  %.066 = phi i32 [ 2, %cf_read_record.exit ], [ 1, %53 ], [ 1, %71 ], [ 0, %19 ], [ 0, %39 ], [ 0, %._crit_edge91 ]
  ret i32 %.066
}